; ModuleID = '44/21.c'
source_filename = "44/21.c"
target datalayout = "e-m:e-p270:32:32-p271:32:32-p272:64:64-i64:64-f80:128-n8:16:32:64-S128"
target triple = "x86_64-pc-linux-gnu"

@.str = private unnamed_addr constant [3 x i8] c"%d\00", align 1
@.str.1 = private unnamed_addr constant [18 x i8] c"%d\0A%d\0A%d\0A%d\0A%d\0A%d\00", align 1

; Function Attrs: noinline nounwind uwtable
define dso_local void @main() #0 {
  %1 = alloca i32, align 4
  %2 = alloca i32, align 4
  %3 = alloca i32, align 4
  %4 = alloca i32, align 4
  %5 = alloca i32, align 4
  %6 = alloca i32, align 4
  %7 = call i32 (i8*, ...) @__isoc99_scanf(i8* getelementptr inbounds ([3 x i8], [3 x i8]* @.str, i64 0, i64 0), i32* %1)
  %8 = call i32 (i8*, ...) @__isoc99_scanf(i8* getelementptr inbounds ([3 x i8], [3 x i8]* @.str, i64 0, i64 0), i32* %2)
  %9 = call i32 (i8*, ...) @__isoc99_scanf(i8* getelementptr inbounds ([3 x i8], [3 x i8]* @.str, i64 0, i64 0), i32* %3)
  %10 = call i32 (i8*, ...) @__isoc99_scanf(i8* getelementptr inbounds ([3 x i8], [3 x i8]* @.str, i64 0, i64 0), i32* %4)
  %11 = call i32 (i8*, ...) @__isoc99_scanf(i8* getelementptr inbounds ([3 x i8], [3 x i8]* @.str, i64 0, i64 0), i32* %5)
  %12 = call i32 (i8*, ...) @__isoc99_scanf(i8* getelementptr inbounds ([3 x i8], [3 x i8]* @.str, i64 0, i64 0), i32* %6)
  %13 = load i32, i32* %1, align 4
  %14 = call i32 @reverse(i32 %13)
  store i32 %14, i32* %1, align 4
  %15 = load i32, i32* %2, align 4
  %16 = call i32 @reverse(i32 %15)
  store i32 %16, i32* %2, align 4
  %17 = load i32, i32* %3, align 4
  %18 = call i32 @reverse(i32 %17)
  store i32 %18, i32* %3, align 4
  %19 = load i32, i32* %4, align 4
  %20 = call i32 @reverse(i32 %19)
  store i32 %20, i32* %4, align 4
  %21 = load i32, i32* %5, align 4
  %22 = call i32 @reverse(i32 %21)
  store i32 %22, i32* %5, align 4
  %23 = load i32, i32* %6, align 4
  %24 = call i32 @reverse(i32 %23)
  store i32 %24, i32* %6, align 4
  %25 = load i32, i32* %1, align 4
  %26 = load i32, i32* %2, align 4
  %27 = load i32, i32* %3, align 4
  %28 = load i32, i32* %4, align 4
  %29 = load i32, i32* %5, align 4
  %30 = load i32, i32* %6, align 4
  %31 = call i32 (i8*, ...) @printf(i8* getelementptr inbounds ([18 x i8], [18 x i8]* @.str.1, i64 0, i64 0), i32 %25, i32 %26, i32 %27, i32 %28, i32 %29, i32 %30)
  ret void
}

declare dso_local i32 @__isoc99_scanf(i8*, ...) #1

; Function Attrs: noinline nounwind uwtable
define dso_local i32 @reverse(i32 %0) #0 {
  %2 = alloca i32, align 4
  %3 = alloca i32, align 4
  %4 = alloca i32, align 4
  store i32 %0, i32* %2, align 4
  store i32 0, i32* %3, align 4
  store i32 0, i32* %4, align 4
  %5 = load i32, i32* %2, align 4
  %6 = icmp slt i32 %5, 0
  br i1 %6, label %7, label %10

7:                                                ; preds = %1
  %8 = load i32, i32* %2, align 4
  %9 = sub nsw i32 0, %8
  store i32 %9, i32* %2, align 4
  store i32 1, i32* %4, align 4
  br label %10

10:                                               ; preds = %7, %1
  br label %11

11:                                               ; preds = %14, %10
  %12 = load i32, i32* %2, align 4
  %13 = icmp sgt i32 %12, 0
  br i1 %13, label %14, label %22

14:                                               ; preds = %11
  %15 = load i32, i32* %2, align 4
  %16 = srem i32 %15, 10
  %17 = load i32, i32* %3, align 4
  %18 = mul nsw i32 10, %17
  %19 = add nsw i32 %16, %18
  store i32 %19, i32* %3, align 4
  %20 = load i32, i32* %2, align 4
  %21 = sdiv i32 %20, 10
  store i32 %21, i32* %2, align 4
  br label %11

22:                                               ; preds = %11
  %23 = load i32, i32* %4, align 4
  %24 = icmp eq i32 %23, 1
  br i1 %24, label %25, label %28

25:                                               ; preds = %22
  %26 = load i32, i32* %3, align 4
  %27 = sub nsw i32 0, %26
  store i32 %27, i32* %3, align 4
  br label %28

28:                                               ; preds = %25, %22
  %29 = load i32, i32* %3, align 4
  ret i32 %29
}

declare dso_local i32 @printf(i8*, ...) #1


!llvm.module.flags = !{!0}
!llvm.ident = !{!1}

!0 = !{i32 1, !"wchar_size", i32 4}
!1 = !{!"clang version 10.0.0-4ubuntu1 "}
